target datalayout = "e-m:e-p270:32:32-p271:32:32-p272:64:64-i64:64-i128:128-f80:128-n8:16:32:64-S128"
target triple = "x86_64-pc-linux-gnu"

%struct.SDL_Surface = type { i32, i32, i32, i32, i32, ptr, i32, ptr, i32, i32, ptr, i32, ptr, i32, ptr, i32, %struct.SDL_Rect, %struct.SDL_BlitMap }
%struct.SDL_Rect = type { i32, i32, i32, i32 }
%struct.SDL_BlitMap = type { i32, ptr, ptr, %struct.SDL_BlitInfo, i32, i32 }
%struct.SDL_BlitInfo = type { ptr, ptr, i32, i32, i32, i32, ptr, ptr, i32, i32, i32, i32, ptr, ptr, ptr, ptr, ptr, ptr, i32, i32, i8, i8, i8, i8 }

@.str.14 = private unnamed_addr constant [32 x i8] c"That operation is not supported\00", align 1

; Function Attrs: nounwind uwtable
define internal zeroext i1 @SDL_FlipSurfaceHorizontal(ptr noundef %0) #0 {
  %2 = alloca i1, align 1
  %3 = alloca ptr, align 8
  %4 = alloca i8, align 1
  %5 = alloca ptr, align 8
  %6 = alloca ptr, align 8
  %7 = alloca ptr, align 8
  %8 = alloca ptr, align 8
  %9 = alloca i32, align 4
  %10 = alloca i32, align 4
  %11 = alloca i32, align 4
  %12 = alloca i32, align 4
  store ptr %0, ptr %3, align 8
  call void @llvm.lifetime.start.p0(i64 1, ptr %4) #8
  call void @llvm.lifetime.start.p0(i64 8, ptr %5) #8
  call void @llvm.lifetime.start.p0(i64 8, ptr %6) #8
  call void @llvm.lifetime.start.p0(i64 8, ptr %7) #8
  call void @llvm.lifetime.start.p0(i64 8, ptr %8) #8
  call void @llvm.lifetime.start.p0(i64 4, ptr %9) #8
  call void @llvm.lifetime.start.p0(i64 4, ptr %10) #8
  call void @llvm.lifetime.start.p0(i64 4, ptr %11) #8
  %13 = load ptr, ptr %3, align 8
  %14 = getelementptr inbounds nuw %struct.SDL_Surface, ptr %13, i32 0, i32 1
  %15 = load i32, ptr %14, align 4
  %16 = icmp ne i32 %15, 0
  br i1 %16, label %17, label %25

17:                                               ; preds = %1
  %18 = load ptr, ptr %3, align 8
  %19 = getelementptr inbounds nuw %struct.SDL_Surface, ptr %18, i32 0, i32 1
  %20 = load i32, ptr %19, align 4
  %21 = lshr i32 %20, 28
  %22 = and i32 %21, 15
  %23 = icmp ne i32 %22, 1
  br i1 %23, label %24, label %25

24:                                               ; preds = %17
  br label %31

25:                                               ; preds = %17, %1
  %26 = load ptr, ptr %3, align 8
  %27 = getelementptr inbounds nuw %struct.SDL_Surface, ptr %26, i32 0, i32 1
  %28 = load i32, ptr %27, align 4
  %29 = lshr i32 %28, 8
  %30 = and i32 %29, 255
  br label %31

31:                                               ; preds = %25, %24
  %32 = phi i32 [ 0, %24 ], [ %30, %25 ]
  %33 = icmp ult i32 %32, 8
  br i1 %33, label %34, label %36

34:                                               ; preds = %31
  %35 = call zeroext i1 (ptr, ...) @SDL_SetError_REAL(ptr noundef @.str.14)
  store i1 %35, ptr %2, align 1
  store i32 1, ptr %12, align 4
  br label %185

36:                                               ; preds = %31
  %37 = load ptr, ptr %3, align 8
  %38 = getelementptr inbounds nuw %struct.SDL_Surface, ptr %37, i32 0, i32 3
  %39 = load i32, ptr %38, align 4
  %40 = icmp sle i32 %39, 0
  br i1 %40, label %41, label %42

41:                                               ; preds = %36
  store i1 true, ptr %2, align 1
  store i32 1, ptr %12, align 4
  br label %185

42:                                               ; preds = %36
  %43 = load ptr, ptr %3, align 8
  %44 = getelementptr inbounds nuw %struct.SDL_Surface, ptr %43, i32 0, i32 2
  %45 = load i32, ptr %44, align 8
  %46 = icmp sle i32 %45, 1
  br i1 %46, label %47, label %48

47:                                               ; preds = %42
  store i1 true, ptr %2, align 1
  store i32 1, ptr %12, align 4
  br label %185

48:                                               ; preds = %42
  %49 = load ptr, ptr %3, align 8
  %50 = getelementptr inbounds nuw %struct.SDL_Surface, ptr %49, i32 0, i32 1
  %51 = load i32, ptr %50, align 4
  %52 = icmp ne i32 %51, 0
  br i1 %52, label %53, label %83

53:                                               ; preds = %48
  %54 = load ptr, ptr %3, align 8
  %55 = getelementptr inbounds nuw %struct.SDL_Surface, ptr %54, i32 0, i32 1
  %56 = load i32, ptr %55, align 4
  %57 = lshr i32 %56, 28
  %58 = and i32 %57, 15
  %59 = icmp ne i32 %58, 1
  br i1 %59, label %60, label %83

60:                                               ; preds = %53
  %61 = load ptr, ptr %3, align 8
  %62 = getelementptr inbounds nuw %struct.SDL_Surface, ptr %61, i32 0, i32 1
  %63 = load i32, ptr %62, align 4
  %64 = icmp eq i32 %63, 844715353
  br i1 %64, label %80, label %65

65:                                               ; preds = %60
  %66 = load ptr, ptr %3, align 8
  %67 = getelementptr inbounds nuw %struct.SDL_Surface, ptr %66, i32 0, i32 1
  %68 = load i32, ptr %67, align 4
  %69 = icmp eq i32 %68, 1498831189
  br i1 %69, label %80, label %70

70:                                               ; preds = %65
  %71 = load ptr, ptr %3, align 8
  %72 = getelementptr inbounds nuw %struct.SDL_Surface, ptr %71, i32 0, i32 1
  %73 = load i32, ptr %72, align 4
  %74 = icmp eq i32 %73, 1431918169
  br i1 %74, label %80, label %75

75:                                               ; preds = %70
  %76 = load ptr, ptr %3, align 8
  %77 = getelementptr inbounds nuw %struct.SDL_Surface, ptr %76, i32 0, i32 1
  %78 = load i32, ptr %77, align 4
  %79 = icmp eq i32 %78, 808530000
  br label %80

80:                                               ; preds = %75, %70, %65, %60
  %81 = phi i1 [ true, %70 ], [ true, %65 ], [ true, %60 ], [ %79, %75 ]
  %82 = select i1 %81, i32 2, i32 1
  br label %89

83:                                               ; preds = %53, %48
  %84 = load ptr, ptr %3, align 8
  %85 = getelementptr inbounds nuw %struct.SDL_Surface, ptr %84, i32 0, i32 1
  %86 = load i32, ptr %85, align 4
  %87 = lshr i32 %86, 0
  %88 = and i32 %87, 255
  br label %89

89:                                               ; preds = %83, %80
  %90 = phi i32 [ %82, %80 ], [ %88, %83 ]
  store i32 %90, ptr %11, align 4
  %91 = load ptr, ptr %3, align 8
  %92 = getelementptr inbounds nuw %struct.SDL_Surface, ptr %91, i32 0, i32 5
  %93 = load ptr, ptr %92, align 8
  store ptr %93, ptr %5, align 8
  %94 = load ptr, ptr %3, align 8
  %95 = getelementptr inbounds nuw %struct.SDL_Surface, ptr %94, i32 0, i32 4
  %96 = load i32, ptr %95, align 8
  %97 = sext i32 %96 to i64
  %98 = mul i64 1, %97
  %99 = icmp ult i64 %98, 128
  %100 = zext i1 %99 to i8
  store i8 %100, ptr %4, align 1
  %101 = load i8, ptr %4, align 1, !range !3, !noundef !4
  %102 = trunc i8 %101 to i1
  br i1 %102, label %103, label %110

103:                                              ; preds = %89
  %104 = load ptr, ptr %3, align 8
  %105 = getelementptr inbounds nuw %struct.SDL_Surface, ptr %104, i32 0, i32 4
  %106 = load i32, ptr %105, align 8
  %107 = sext i32 %106 to i64
  %108 = mul i64 1, %107
  %109 = alloca i8, i64 %108, align 16
  br label %117

110:                                              ; preds = %89
  %111 = load ptr, ptr %3, align 8
  %112 = getelementptr inbounds nuw %struct.SDL_Surface, ptr %111, i32 0, i32 4
  %113 = load i32, ptr %112, align 8
  %114 = sext i32 %113 to i64
  %115 = mul i64 1, %114
  %116 = call noalias ptr @SDL_malloc_REAL(i64 noundef %115)
  br label %117

117:                                              ; preds = %110, %103
  %118 = phi ptr [ %109, %103 ], [ %116, %110 ]
  store ptr %118, ptr %8, align 8
  %119 = load ptr, ptr %8, align 8
  %120 = icmp ne ptr %119, null
  br i1 %120, label %122, label %121

121:                                              ; preds = %117
  store i1 false, ptr %2, align 1
  store i32 1, ptr %12, align 4
  br label %185

122:                                              ; preds = %117
  %123 = load ptr, ptr %3, align 8
  %124 = getelementptr inbounds nuw %struct.SDL_Surface, ptr %123, i32 0, i32 3
  %125 = load i32, ptr %124, align 4
  store i32 %125, ptr %9, align 4
  br label %126

126:                                              ; preds = %171, %122
  %127 = load i32, ptr %9, align 4
  %128 = add nsw i32 %127, -1
  store i32 %128, ptr %9, align 4
  %129 = icmp ne i32 %127, 0
  br i1 %129, label %130, label %178

130:                                              ; preds = %126
  %131 = load ptr, ptr %5, align 8
  store ptr %131, ptr %6, align 8
  %132 = load ptr, ptr %6, align 8
  %133 = load ptr, ptr %3, align 8
  %134 = getelementptr inbounds nuw %struct.SDL_Surface, ptr %133, i32 0, i32 2
  %135 = load i32, ptr %134, align 8
  %136 = sub nsw i32 %135, 1
  %137 = load i32, ptr %11, align 4
  %138 = mul nsw i32 %136, %137
  %139 = sext i32 %138 to i64
  %140 = getelementptr inbounds i8, ptr %132, i64 %139
  store ptr %140, ptr %7, align 8
  %141 = load ptr, ptr %3, align 8
  %142 = getelementptr inbounds nuw %struct.SDL_Surface, ptr %141, i32 0, i32 2
  %143 = load i32, ptr %142, align 8
  %144 = sdiv i32 %143, 2
  store i32 %144, ptr %10, align 4
  br label %145

145:                                              ; preds = %149, %130
  %146 = load i32, ptr %10, align 4
  %147 = add nsw i32 %146, -1
  store i32 %147, ptr %10, align 4
  %148 = icmp ne i32 %146, 0
  br i1 %148, label %149, label %171

149:                                              ; preds = %145
  %150 = load ptr, ptr %8, align 8
  %151 = load ptr, ptr %6, align 8
  %152 = load i32, ptr %11, align 4
  %153 = sext i32 %152 to i64
  call void @llvm.memcpy.p0.p0.i64(ptr align 1 %150, ptr align 1 %151, i64 %153, i1 false)
  %154 = load ptr, ptr %6, align 8
  %155 = load ptr, ptr %7, align 8
  %156 = load i32, ptr %11, align 4
  %157 = sext i32 %156 to i64
  call void @llvm.memcpy.p0.p0.i64(ptr align 1 %154, ptr align 1 %155, i64 %157, i1 false)
  %158 = load ptr, ptr %7, align 8
  %159 = load ptr, ptr %8, align 8
  %160 = load i32, ptr %11, align 4
  %161 = sext i32 %160 to i64
  call void @llvm.memcpy.p0.p0.i64(ptr align 1 %158, ptr align 1 %159, i64 %161, i1 false)
  %162 = load i32, ptr %11, align 4
  %163 = load ptr, ptr %6, align 8
  %164 = sext i32 %162 to i64
  %165 = getelementptr inbounds i8, ptr %163, i64 %164
  store ptr %165, ptr %6, align 8
  %166 = load i32, ptr %11, align 4
  %167 = load ptr, ptr %7, align 8
  %168 = sext i32 %166 to i64
  %169 = sub i64 0, %168
  %170 = getelementptr inbounds i8, ptr %167, i64 %169
  store ptr %170, ptr %7, align 8
  br label %145, !llvm.loop !16

171:                                              ; preds = %145
  %172 = load ptr, ptr %3, align 8
  %173 = getelementptr inbounds nuw %struct.SDL_Surface, ptr %172, i32 0, i32 4
  %174 = load i32, ptr %173, align 8
  %175 = load ptr, ptr %5, align 8
  %176 = sext i32 %174 to i64
  %177 = getelementptr inbounds i8, ptr %175, i64 %176
  store ptr %177, ptr %5, align 8
  br label %126, !llvm.loop !17

178:                                              ; preds = %126
  %179 = load i8, ptr %4, align 1, !range !3, !noundef !4
  %180 = trunc i8 %179 to i1
  br i1 %180, label %181, label %182

181:                                              ; preds = %178
  br label %184

182:                                              ; preds = %178
  %183 = load ptr, ptr %8, align 8
  call void @SDL_free_REAL(ptr noundef %183)
  br label %184

184:                                              ; preds = %182, %181
  store i1 true, ptr %2, align 1
  store i32 1, ptr %12, align 4
  br label %185

185:                                              ; preds = %184, %121, %47, %41, %34
  call void @llvm.lifetime.end.p0(i64 4, ptr %11) #8
  call void @llvm.lifetime.end.p0(i64 4, ptr %10) #8
  call void @llvm.lifetime.end.p0(i64 4, ptr %9) #8
  call void @llvm.lifetime.end.p0(i64 8, ptr %8) #8
  call void @llvm.lifetime.end.p0(i64 8, ptr %7) #8
  call void @llvm.lifetime.end.p0(i64 8, ptr %6) #8
  call void @llvm.lifetime.end.p0(i64 8, ptr %5) #8
  call void @llvm.lifetime.end.p0(i64 1, ptr %4) #8
  %186 = load i1, ptr %2, align 1
  ret i1 %186
}