; Function Attrs: nounwind uwtable
define internal fastcc zeroext i1 @SDL_FlipSurfaceHorizontal(ptr noundef readonly captures(none) %0) unnamed_addr #2 {
  %2 = getelementptr inbounds nuw i8, ptr %0, i64 4
  %3 = load i32, ptr %2, align 4
  %.mask = and i32 %3, -268435456
  %.not52 = icmp ne i32 %.mask, 268435456
  %4 = and i32 %3, 63488
  %5 = icmp eq i32 %4, 0
  %or.cond62 = or i1 %.not52, %5
  br i1 %or.cond62, label %.critedge, label %7

.critedge:                                        ; preds = %1
  %6 = tail call zeroext i1 (ptr, ...) @SDL_SetError_REAL(ptr noundef nonnull @.str.14) #10
  br label %46

7:                                                ; preds = %1
  %8 = getelementptr inbounds nuw i8, ptr %0, i64 12
  %9 = load i32, ptr %8, align 4
  %10 = icmp slt i32 %9, 1
  br i1 %10, label %46, label %11

11:                                               ; preds = %7
  %12 = getelementptr inbounds nuw i8, ptr %0, i64 8
  %13 = load i32, ptr %12, align 8
  %14 = icmp slt i32 %13, 2
  br i1 %14, label %46, label %15

15:                                               ; preds = %11
  %16 = and i32 %3, 255
  %17 = getelementptr inbounds nuw i8, ptr %0, i64 24
  %18 = load ptr, ptr %17, align 8
  %19 = getelementptr inbounds nuw i8, ptr %0, i64 16
  %20 = load i32, ptr %19, align 8
  %21 = sext i32 %20 to i64
  %22 = icmp ult i32 %20, 128
  br i1 %22, label %.thread74, label %24

.thread74:                                        ; preds = %15
  %23 = alloca i8, i64 %21, align 16
  br label %.lr.ph71

24:                                               ; preds = %15
  %25 = tail call noalias ptr @SDL_malloc_REAL(i64 noundef %21) #10
  %.not56 = icmp eq ptr %25, null
  br i1 %.not56, label %46, label %26

26:                                               ; preds = %24
  %.pre = load i32, ptr %8, align 4
  %.not5768 = icmp eq i32 %.pre, 0
  br i1 %.not5768, label %._crit_edge72.thread, label %.lr.ph71

.lr.ph71:                                         ; preds = %.thread74, %26
  %27 = phi ptr [ %23, %.thread74 ], [ %25, %26 ]
  %28 = phi i32 [ %9, %.thread74 ], [ %.pre, %26 ]
  %29 = zext nneg i32 %16 to i64
  %30 = sub nsw i64 0, %29
  br label %31

31:                                               ; preds = %.lr.ph71, %._crit_edge
  %.in = phi i32 [ %28, %.lr.ph71 ], [ %32, %._crit_edge ]
  %.04569 = phi ptr [ %18, %.lr.ph71 ], [ %44, %._crit_edge ]
  %32 = add nsw i32 %.in, -1
  %33 = load i32, ptr %12, align 8
  %.off = add i32 %33, 1
  %.not5864 = icmp ult i32 %.off, 3
  br i1 %.not5864, label %._crit_edge, label %.lr.ph.preheader

.lr.ph.preheader:                                 ; preds = %31
  %34 = sdiv i32 %33, 2
  %35 = add nsw i32 %33, -1
  %36 = mul nsw i32 %35, %16
  %37 = sext i32 %36 to i64
  %38 = getelementptr inbounds i8, ptr %.04569, i64 %37
  br label %.lr.ph

.lr.ph:                                           ; preds = %.lr.ph.preheader, %.lr.ph
  %.04367 = phi i32 [ %39, %.lr.ph ], [ %34, %.lr.ph.preheader ]
  %.04666 = phi ptr [ %41, %.lr.ph ], [ %38, %.lr.ph.preheader ]
  %.04765 = phi ptr [ %40, %.lr.ph ], [ %.04569, %.lr.ph.preheader ]
  %39 = add nsw i32 %.04367, -1
  call void @llvm.memcpy.p0.p0.i64(ptr nonnull align 1 %27, ptr align 1 %.04765, i64 %29, i1 false)
  tail call void @llvm.memcpy.p0.p0.i64(ptr align 1 %.04765, ptr align 1 %.04666, i64 %29, i1 false)
  call void @llvm.memcpy.p0.p0.i64(ptr align 1 %.04666, ptr nonnull align 1 %27, i64 %29, i1 false)
  %40 = getelementptr inbounds nuw i8, ptr %.04765, i64 %29
  %41 = getelementptr inbounds i8, ptr %.04666, i64 %30
  %.not58 = icmp eq i32 %39, 0
  br i1 %.not58, label %._crit_edge, label %.lr.ph, !llvm.loop !15

._crit_edge:                                      ; preds = %.lr.ph, %31
  %42 = load i32, ptr %19, align 8
  %43 = sext i32 %42 to i64
  %44 = getelementptr inbounds i8, ptr %.04569, i64 %43
  %.not57 = icmp eq i32 %32, 0
  br i1 %.not57, label %._crit_edge72, label %31, !llvm.loop !16

._crit_edge72:                                    ; preds = %._crit_edge
  br i1 %22, label %46, label %._crit_edge72.thread

._crit_edge72.thread:                             ; preds = %26, %._crit_edge72
  %45 = phi ptr [ %27, %._crit_edge72 ], [ %25, %26 ]
  call void @SDL_free_REAL(ptr noundef nonnull %45) #10
  br label %46

46:                                               ; preds = %._crit_edge72.thread, %._crit_edge72, %24, %11, %7, %.critedge
  %.0 = phi i1 [ %6, %.critedge ], [ true, %7 ], [ true, %11 ], [ false, %24 ], [ true, %._crit_edge72 ], [ true, %._crit_edge72.thread ]
  ret i1 %.0
}